target datalayout = "e-m:e-p270:32:32-p271:32:32-p272:64:64-i64:64-i128:128-f80:128-n8:16:32:64-S128"
target triple = "x86_64-pc-linux-gnu"

%struct.WebPIDecoder = type { i32, %struct.WebPDecParams, i32, ptr, %struct.VP8Io, %struct.MemBuffer, %struct.WebPDecBuffer, ptr, i64, i32 }
%struct.WebPDecParams = type { ptr, ptr, ptr, ptr, i32, ptr, ptr, ptr, ptr, ptr, ptr, ptr, ptr, ptr }
%struct.VP8Io = type { i32, i32, i32, i32, i32, ptr, ptr, ptr, i32, i32, ptr, ptr, ptr, ptr, i32, i64, ptr, i32, i32, i32, i32, i32, i32, i32, i32, i32, ptr }
%struct.MemBuffer = type { i32, i64, i64, i64, ptr, i64, ptr }
%struct.WebPDecBuffer = type { i32, i32, i32, i32, %union.anon, [4 x i32], ptr }
%union.anon = type { %struct.WebPYUVABuffer }
%struct.WebPYUVABuffer = type { ptr, ptr, ptr, ptr, i32, i32, i32, i32, i64, i64, i64, i64 }

; Function Attrs: nounwind uwtable
define ptr @WebPINewDecoder(ptr noundef %0) #0 {
  %2 = alloca ptr, align 8
  store ptr %0, ptr %2, align 8, !tbaa !3
  %3 = load ptr, ptr %2, align 8, !tbaa !3
  %4 = call ptr @NewDecoder(ptr noundef %3, ptr noundef null)
  ret ptr %4
}

; Function Attrs: nounwind uwtable
define ptr @WebPINewYUVA(ptr noundef %0, i64 noundef %1, i32 noundef %2, ptr noundef %3, i64 noundef %4, i32 noundef %5, ptr noundef %6, i64 noundef %7, i32 noundef %8, ptr noundef %9, i64 noundef %10, i32 noundef %11) #0 {
  %13 = alloca ptr, align 8
  %14 = alloca ptr, align 8
  %15 = alloca i64, align 8
  %16 = alloca i32, align 4
  %17 = alloca ptr, align 8
  %18 = alloca i64, align 8
  %19 = alloca i32, align 4
  %20 = alloca ptr, align 8
  %21 = alloca i64, align 8
  %22 = alloca i32, align 4
  %23 = alloca ptr, align 8
  %24 = alloca i64, align 8
  %25 = alloca i32, align 4
  %26 = alloca i32, align 4
  %27 = alloca ptr, align 8
  %28 = alloca i32, align 4
  %29 = alloca i32, align 4
  store ptr %0, ptr %14, align 8, !tbaa !28
  store i64 %1, ptr %15, align 8, !tbaa !29
  store i32 %2, ptr %16, align 4, !tbaa !39
  store ptr %3, ptr %17, align 8, !tbaa !28
  store i64 %4, ptr %18, align 8, !tbaa !29
  store i32 %5, ptr %19, align 4, !tbaa !39
  store ptr %6, ptr %20, align 8, !tbaa !28
  store i64 %7, ptr %21, align 8, !tbaa !29
  store i32 %8, ptr %22, align 4, !tbaa !39
  store ptr %9, ptr %23, align 8, !tbaa !28
  store i64 %10, ptr %24, align 8, !tbaa !29
  store i32 %11, ptr %25, align 4, !tbaa !39
  call void @llvm.lifetime.start.p0(i64 4, ptr %26) #6
  %30 = load ptr, ptr %14, align 8, !tbaa !28
  %31 = icmp ne ptr %30, null
  %32 = select i1 %31, i32 1, i32 0
  store i32 %32, ptr %26, align 4, !tbaa !39
  call void @llvm.lifetime.start.p0(i64 8, ptr %27) #6
  call void @llvm.lifetime.start.p0(i64 4, ptr %28) #6
  %33 = load i32, ptr %26, align 4, !tbaa !39
  %34 = icmp eq i32 %33, 0
  br i1 %34, label %35, label %36

35:                                               ; preds = %12
  store i64 0, ptr %24, align 8, !tbaa !29
  store i64 0, ptr %21, align 8, !tbaa !29
  store i64 0, ptr %18, align 8, !tbaa !29
  store i64 0, ptr %15, align 8, !tbaa !29
  store i32 0, ptr %25, align 4, !tbaa !39
  store i32 0, ptr %22, align 4, !tbaa !39
  store i32 0, ptr %19, align 4, !tbaa !39
  store i32 0, ptr %16, align 4, !tbaa !39
  store ptr null, ptr %23, align 8, !tbaa !28
  store ptr null, ptr %20, align 8, !tbaa !28
  store ptr null, ptr %17, align 8, !tbaa !28
  store i32 12, ptr %28, align 4, !tbaa !39
  br label %78

36:                                               ; preds = %12
  %37 = load ptr, ptr %17, align 8, !tbaa !28
  %38 = icmp eq ptr %37, null
  br i1 %38, label %42, label %39

39:                                               ; preds = %36
  %40 = load ptr, ptr %20, align 8, !tbaa !28
  %41 = icmp eq ptr %40, null
  br i1 %41, label %42, label %43

42:                                               ; preds = %39, %36
  store ptr null, ptr %13, align 8
  store i32 1, ptr %29, align 4
  br label %153

43:                                               ; preds = %39
  %44 = load i64, ptr %15, align 8, !tbaa !29
  %45 = icmp eq i64 %44, 0
  br i1 %45, label %52, label %46

46:                                               ; preds = %43
  %47 = load i64, ptr %18, align 8, !tbaa !29
  %48 = icmp eq i64 %47, 0
  br i1 %48, label %52, label %49

49:                                               ; preds = %46
  %50 = load i64, ptr %21, align 8, !tbaa !29
  %51 = icmp eq i64 %50, 0
  br i1 %51, label %52, label %53

52:                                               ; preds = %49, %46, %43
  store ptr null, ptr %13, align 8
  store i32 1, ptr %29, align 4
  br label %153

53:                                               ; preds = %49
  %54 = load i32, ptr %16, align 4, !tbaa !39
  %55 = icmp eq i32 %54, 0
  br i1 %55, label %62, label %56

56:                                               ; preds = %53
  %57 = load i32, ptr %19, align 4, !tbaa !39
  %58 = icmp eq i32 %57, 0
  br i1 %58, label %62, label %59

59:                                               ; preds = %56
  %60 = load i32, ptr %22, align 4, !tbaa !39
  %61 = icmp eq i32 %60, 0
  br i1 %61, label %62, label %63

62:                                               ; preds = %59, %56, %53
  store ptr null, ptr %13, align 8
  store i32 1, ptr %29, align 4
  br label %153

63:                                               ; preds = %59
  %64 = load ptr, ptr %23, align 8, !tbaa !28
  %65 = icmp ne ptr %64, null
  br i1 %65, label %66, label %74

66:                                               ; preds = %63
  %67 = load i64, ptr %24, align 8, !tbaa !29
  %68 = icmp eq i64 %67, 0
  br i1 %68, label %72, label %69

69:                                               ; preds = %66
  %70 = load i32, ptr %25, align 4, !tbaa !39
  %71 = icmp eq i32 %70, 0
  br i1 %71, label %72, label %73

72:                                               ; preds = %69, %66
  store ptr null, ptr %13, align 8
  store i32 1, ptr %29, align 4
  br label %153

73:                                               ; preds = %69
  br label %74

74:                                               ; preds = %73, %63
  %75 = load ptr, ptr %23, align 8, !tbaa !28
  %76 = icmp eq ptr %75, null
  %77 = select i1 %76, i32 11, i32 12
  store i32 %77, ptr %28, align 4, !tbaa !39
  br label %78

78:                                               ; preds = %74, %35
  %79 = call ptr @WebPINewDecoder(ptr noundef null)
  store ptr %79, ptr %27, align 8, !tbaa !10
  %80 = load ptr, ptr %27, align 8, !tbaa !10
  %81 = icmp eq ptr %80, null
  br i1 %81, label %82, label %83

82:                                               ; preds = %78
  store ptr null, ptr %13, align 8
  store i32 1, ptr %29, align 4
  br label %153

83:                                               ; preds = %78
  %84 = load i32, ptr %28, align 4, !tbaa !39
  %85 = load ptr, ptr %27, align 8, !tbaa !10
  %86 = getelementptr inbounds nuw %struct.WebPIDecoder, ptr %85, i32 0, i32 6
  %87 = getelementptr inbounds nuw %struct.WebPDecBuffer, ptr %86, i32 0, i32 0
  store i32 %84, ptr %87, align 8, !tbaa !40
  %88 = load i32, ptr %26, align 4, !tbaa !39
  %89 = load ptr, ptr %27, align 8, !tbaa !10
  %90 = getelementptr inbounds nuw %struct.WebPIDecoder, ptr %89, i32 0, i32 6
  %91 = getelementptr inbounds nuw %struct.WebPDecBuffer, ptr %90, i32 0, i32 3
  store i32 %88, ptr %91, align 4, !tbaa !41
  %92 = load ptr, ptr %14, align 8, !tbaa !28
  %93 = load ptr, ptr %27, align 8, !tbaa !10
  %94 = getelementptr inbounds nuw %struct.WebPIDecoder, ptr %93, i32 0, i32 6
  %95 = getelementptr inbounds nuw %struct.WebPDecBuffer, ptr %94, i32 0, i32 4
  %96 = getelementptr inbounds nuw %struct.WebPYUVABuffer, ptr %95, i32 0, i32 0
  store ptr %92, ptr %96, align 8, !tbaa !42
  %97 = load i32, ptr %16, align 4, !tbaa !39
  %98 = load ptr, ptr %27, align 8, !tbaa !10
  %99 = getelementptr inbounds nuw %struct.WebPIDecoder, ptr %98, i32 0, i32 6
  %100 = getelementptr inbounds nuw %struct.WebPDecBuffer, ptr %99, i32 0, i32 4
  %101 = getelementptr inbounds nuw %struct.WebPYUVABuffer, ptr %100, i32 0, i32 4
  store i32 %97, ptr %101, align 8, !tbaa !42
  %102 = load i64, ptr %15, align 8, !tbaa !29
  %103 = load ptr, ptr %27, align 8, !tbaa !10
  %104 = getelementptr inbounds nuw %struct.WebPIDecoder, ptr %103, i32 0, i32 6
  %105 = getelementptr inbounds nuw %struct.WebPDecBuffer, ptr %104, i32 0, i32 4
  %106 = getelementptr inbounds nuw %struct.WebPYUVABuffer, ptr %105, i32 0, i32 8
  store i64 %102, ptr %106, align 8, !tbaa !42
  %107 = load ptr, ptr %17, align 8, !tbaa !28
  %108 = load ptr, ptr %27, align 8, !tbaa !10
  %109 = getelementptr inbounds nuw %struct.WebPIDecoder, ptr %108, i32 0, i32 6
  %110 = getelementptr inbounds nuw %struct.WebPDecBuffer, ptr %109, i32 0, i32 4
  %111 = getelementptr inbounds nuw %struct.WebPYUVABuffer, ptr %110, i32 0, i32 1
  store ptr %107, ptr %111, align 8, !tbaa !42
  %112 = load i32, ptr %19, align 4, !tbaa !39
  %113 = load ptr, ptr %27, align 8, !tbaa !10
  %114 = getelementptr inbounds nuw %struct.WebPIDecoder, ptr %113, i32 0, i32 6
  %115 = getelementptr inbounds nuw %struct.WebPDecBuffer, ptr %114, i32 0, i32 4
  %116 = getelementptr inbounds nuw %struct.WebPYUVABuffer, ptr %115, i32 0, i32 5
  store i32 %112, ptr %116, align 4, !tbaa !42
  %117 = load i64, ptr %18, align 8, !tbaa !29
  %118 = load ptr, ptr %27, align 8, !tbaa !10
  %119 = getelementptr inbounds nuw %struct.WebPIDecoder, ptr %118, i32 0, i32 6
  %120 = getelementptr inbounds nuw %struct.WebPDecBuffer, ptr %119, i32 0, i32 4
  %121 = getelementptr inbounds nuw %struct.WebPYUVABuffer, ptr %120, i32 0, i32 9
  store i64 %117, ptr %121, align 8, !tbaa !42
  %122 = load ptr, ptr %20, align 8, !tbaa !28
  %123 = load ptr, ptr %27, align 8, !tbaa !10
  %124 = getelementptr inbounds nuw %struct.WebPIDecoder, ptr %123, i32 0, i32 6
  %125 = getelementptr inbounds nuw %struct.WebPDecBuffer, ptr %124, i32 0, i32 4
  %126 = getelementptr inbounds nuw %struct.WebPYUVABuffer, ptr %125, i32 0, i32 2
  store ptr %122, ptr %126, align 8, !tbaa !42
  %127 = load i32, ptr %22, align 4, !tbaa !39
  %128 = load ptr, ptr %27, align 8, !tbaa !10
  %129 = getelementptr inbounds nuw %struct.WebPIDecoder, ptr %128, i32 0, i32 6
  %130 = getelementptr inbounds nuw %struct.WebPDecBuffer, ptr %129, i32 0, i32 4
  %131 = getelementptr inbounds nuw %struct.WebPYUVABuffer, ptr %130, i32 0, i32 6
  store i32 %127, ptr %131, align 8, !tbaa !42
  %132 = load i64, ptr %21, align 8, !tbaa !29
  %133 = load ptr, ptr %27, align 8, !tbaa !10
  %134 = getelementptr inbounds nuw %struct.WebPIDecoder, ptr %133, i32 0, i32 6
  %135 = getelementptr inbounds nuw %struct.WebPDecBuffer, ptr %134, i32 0, i32 4
  %136 = getelementptr inbounds nuw %struct.WebPYUVABuffer, ptr %135, i32 0, i32 10
  store i64 %132, ptr %136, align 8, !tbaa !42
  %137 = load ptr, ptr %23, align 8, !tbaa !28
  %138 = load ptr, ptr %27, align 8, !tbaa !10
  %139 = getelementptr inbounds nuw %struct.WebPIDecoder, ptr %138, i32 0, i32 6
  %140 = getelementptr inbounds nuw %struct.WebPDecBuffer, ptr %139, i32 0, i32 4
  %141 = getelementptr inbounds nuw %struct.WebPYUVABuffer, ptr %140, i32 0, i32 3
  store ptr %137, ptr %141, align 8, !tbaa !42
  %142 = load i32, ptr %25, align 4, !tbaa !39
  %143 = load ptr, ptr %27, align 8, !tbaa !10
  %144 = getelementptr inbounds nuw %struct.WebPIDecoder, ptr %143, i32 0, i32 6
  %145 = getelementptr inbounds nuw %struct.WebPDecBuffer, ptr %144, i32 0, i32 4
  %146 = getelementptr inbounds nuw %struct.WebPYUVABuffer, ptr %145, i32 0, i32 7
  store i32 %142, ptr %146, align 4, !tbaa !42
  %147 = load i64, ptr %24, align 8, !tbaa !29
  %148 = load ptr, ptr %27, align 8, !tbaa !10
  %149 = getelementptr inbounds nuw %struct.WebPIDecoder, ptr %148, i32 0, i32 6
  %150 = getelementptr inbounds nuw %struct.WebPDecBuffer, ptr %149, i32 0, i32 4
  %151 = getelementptr inbounds nuw %struct.WebPYUVABuffer, ptr %150, i32 0, i32 11
  store i64 %147, ptr %151, align 8, !tbaa !42
  %152 = load ptr, ptr %27, align 8, !tbaa !10
  store ptr %152, ptr %13, align 8
  store i32 1, ptr %29, align 4
  br label %153

153:                                              ; preds = %83, %82, %72, %62, %52, %42
  call void @llvm.lifetime.end.p0(i64 4, ptr %28) #6
  call void @llvm.lifetime.end.p0(i64 8, ptr %27) #6
  call void @llvm.lifetime.end.p0(i64 4, ptr %26) #6
  %154 = load ptr, ptr %13, align 8
  ret ptr %154
}

; Function Attrs: nounwind uwtable
define ptr @WebPINewYUV(ptr noundef %0, i64 noundef %1, i32 noundef %2, ptr noundef %3, i64 noundef %4, i32 noundef %5, ptr noundef %6, i64 noundef %7, i32 noundef %8) #0 {
  %10 = alloca ptr, align 8
  %11 = alloca i64, align 8
  %12 = alloca i32, align 4
  %13 = alloca ptr, align 8
  %14 = alloca i64, align 8
  %15 = alloca i32, align 4
  %16 = alloca ptr, align 8
  %17 = alloca i64, align 8
  %18 = alloca i32, align 4
  store ptr %0, ptr %10, align 8, !tbaa !28
  store i64 %1, ptr %11, align 8, !tbaa !29
  store i32 %2, ptr %12, align 4, !tbaa !39
  store ptr %3, ptr %13, align 8, !tbaa !28
  store i64 %4, ptr %14, align 8, !tbaa !29
  store i32 %5, ptr %15, align 4, !tbaa !39
  store ptr %6, ptr %16, align 8, !tbaa !28
  store i64 %7, ptr %17, align 8, !tbaa !29
  store i32 %8, ptr %18, align 4, !tbaa !39
  %19 = load ptr, ptr %10, align 8, !tbaa !28
  %20 = load i64, ptr %11, align 8, !tbaa !29
  %21 = load i32, ptr %12, align 4, !tbaa !39
  %22 = load ptr, ptr %13, align 8, !tbaa !28
  %23 = load i64, ptr %14, align 8, !tbaa !29
  %24 = load i32, ptr %15, align 4, !tbaa !39
  %25 = load ptr, ptr %16, align 8, !tbaa !28
  %26 = load i64, ptr %17, align 8, !tbaa !29
  %27 = load i32, ptr %18, align 4, !tbaa !39
  %28 = call ptr @WebPINewYUVA(ptr noundef %19, i64 noundef %20, i32 noundef %21, ptr noundef %22, i64 noundef %23, i32 noundef %24, ptr noundef %25, i64 noundef %26, i32 noundef %27, ptr noundef null, i64 noundef 0, i32 noundef 0)
  ret ptr %28
}