; Function Attrs: nounwind uwtable
define ptr @WebPINewYUV(ptr noundef %0, i64 noundef %1, i32 noundef %2, ptr noundef %3, i64 noundef %4, i32 noundef %5, ptr noundef %6, i64 noundef %7, i32 noundef %8) local_unnamed_addr #0 {
  %.not.i = icmp ne ptr %0, null
  %10 = zext i1 %.not.i to i32
  br i1 %.not.i, label %11, label %22

11:                                               ; preds = %9
  %12 = icmp eq ptr %3, null
  %13 = icmp eq ptr %6, null
  %or.cond.i = or i1 %12, %13
  br i1 %or.cond.i, label %WebPINewYUVA.exit, label %14

14:                                               ; preds = %11
  %15 = icmp eq i64 %1, 0
  %16 = icmp eq i64 %4, 0
  %or.cond3.i = or i1 %15, %16
  %17 = icmp eq i64 %7, 0
  %or.cond5.i = or i1 %or.cond3.i, %17
  br i1 %or.cond5.i, label %WebPINewYUVA.exit, label %18

18:                                               ; preds = %14
  %19 = icmp eq i32 %2, 0
  %20 = icmp eq i32 %5, 0
  %or.cond7.i = or i1 %19, %20
  %21 = icmp eq i32 %8, 0
  %or.cond9.i = or i1 %or.cond7.i, %21
  br i1 %or.cond9.i, label %WebPINewYUVA.exit, label %22

22:                                               ; preds = %18, %9
  %.066.i = phi i32 [ 0, %9 ], [ %2, %18 ]
  %.065.i = phi ptr [ null, %9 ], [ %3, %18 ]
  %.064.i = phi i64 [ 0, %9 ], [ %4, %18 ]
  %.063.i = phi i32 [ 0, %9 ], [ %5, %18 ]
  %.062.i = phi ptr [ null, %9 ], [ %6, %18 ]
  %.061.i = phi i64 [ 0, %9 ], [ %7, %18 ]
  %.060.i = phi i32 [ 0, %9 ], [ %8, %18 ]
  %.056.i = phi i64 [ 0, %9 ], [ %1, %18 ]
  %.0.i = phi i32 [ 12, %9 ], [ 11, %18 ]
  %23 = tail call fastcc ptr @NewDecoder(ptr noundef null, ptr noundef null)
  %24 = icmp eq ptr %23, null
  br i1 %24, label %WebPINewYUVA.exit, label %25

25:                                               ; preds = %22
  %26 = getelementptr inbounds nuw i8, ptr %23, i64 352
  store i32 %.0.i, ptr %26, align 8, !tbaa !29
  %27 = getelementptr inbounds nuw i8, ptr %23, i64 364
  store i32 %10, ptr %27, align 4, !tbaa !30
  %28 = getelementptr inbounds nuw i8, ptr %23, i64 368
  store ptr %0, ptr %28, align 8, !tbaa !31
  %29 = getelementptr inbounds nuw i8, ptr %23, i64 400
  store i32 %.066.i, ptr %29, align 8, !tbaa !31
  %30 = getelementptr inbounds nuw i8, ptr %23, i64 416
  store i64 %.056.i, ptr %30, align 8, !tbaa !31
  %31 = getelementptr inbounds nuw i8, ptr %23, i64 376
  store ptr %.065.i, ptr %31, align 8, !tbaa !31
  %32 = getelementptr inbounds nuw i8, ptr %23, i64 404
  store i32 %.063.i, ptr %32, align 4, !tbaa !31
  %33 = getelementptr inbounds nuw i8, ptr %23, i64 424
  store i64 %.064.i, ptr %33, align 8, !tbaa !31
  %34 = getelementptr inbounds nuw i8, ptr %23, i64 384
  store ptr %.062.i, ptr %34, align 8, !tbaa !31
  %35 = getelementptr inbounds nuw i8, ptr %23, i64 408
  store i32 %.060.i, ptr %35, align 8, !tbaa !31
  %36 = getelementptr inbounds nuw i8, ptr %23, i64 432
  store i64 %.061.i, ptr %36, align 8, !tbaa !31
  %37 = getelementptr inbounds nuw i8, ptr %23, i64 392
  store ptr null, ptr %37, align 8, !tbaa !31
  %38 = getelementptr inbounds nuw i8, ptr %23, i64 412
  store i32 0, ptr %38, align 4, !tbaa !31
  %39 = getelementptr inbounds nuw i8, ptr %23, i64 440
  store i64 0, ptr %39, align 8, !tbaa !31
  br label %WebPINewYUVA.exit

WebPINewYUVA.exit:                                ; preds = %11, %14, %18, %22, %25
  %.055.i = phi ptr [ %23, %25 ], [ null, %11 ], [ null, %14 ], [ null, %18 ], [ null, %22 ]
  ret ptr %.055.i
}